target datalayout = "e-m:e-p270:32:32-p271:32:32-p272:64:64-i64:64-i128:128-f80:128-n8:16:32:64-S128"
target triple = "x86_64-pc-linux-gnu"

%struct._xmlNode = type { ptr, i32, ptr, ptr, ptr, ptr, ptr, ptr, ptr, ptr, ptr, ptr, ptr, ptr, i16, i16 }
%struct._zval_struct = type { %union._zend_value, %union.anon, %union.anon.2 }
%union._zend_value = type { i64 }
%union.anon = type { i32 }
%union.anon.2 = type { i32 }

; Function Attrs: nounwind uwtable
define hidden i32 @dom_parent_node_first_element_child_read(ptr noundef %0, ptr noundef %1) #0 {
  %3 = alloca i32, align 4
  %4 = alloca ptr, align 8
  %5 = alloca ptr, align 8
  %6 = alloca ptr, align 8
  %7 = alloca ptr, align 8
  store ptr %0, ptr %4, align 8
  store ptr %1, ptr %5, align 8
  store ptr null, ptr %7, align 8
  %8 = load ptr, ptr %4, align 8
  %9 = call ptr @dom_object_get_node(ptr noundef %8)
  store ptr %9, ptr %6, align 8
  %10 = load ptr, ptr %6, align 8
  %11 = icmp eq ptr %10, null
  br i1 %11, label %12, label %13

12:                                               ; preds = %2
  call void @php_dom_throw_error(i32 noundef 11, i32 noundef 1)
  store i32 -1, ptr %3, align 4
  br label %49

13:                                               ; preds = %2
  %14 = load ptr, ptr %6, align 8
  %15 = call i32 @dom_node_children_valid(ptr noundef %14)
  %16 = icmp eq i32 %15, 0
  br i1 %16, label %17, label %36

17:                                               ; preds = %13
  %18 = load ptr, ptr %6, align 8
  %19 = getelementptr inbounds %struct._xmlNode, ptr %18, i32 0, i32 3
  %20 = load ptr, ptr %19, align 8
  store ptr %20, ptr %7, align 8
  br label %21

21:                                               ; preds = %31, %17
  %22 = load ptr, ptr %7, align 8
  %23 = icmp ne ptr %22, null
  br i1 %23, label %24, label %29

24:                                               ; preds = %21
  %25 = load ptr, ptr %7, align 8
  %26 = getelementptr inbounds %struct._xmlNode, ptr %25, i32 0, i32 1
  %27 = load i32, ptr %26, align 8
  %28 = icmp ne i32 %27, 1
  br label %29

29:                                               ; preds = %24, %21
  %30 = phi i1 [ false, %21 ], [ %28, %24 ]
  br i1 %30, label %31, label %35

31:                                               ; preds = %29
  %32 = load ptr, ptr %7, align 8
  %33 = getelementptr inbounds %struct._xmlNode, ptr %32, i32 0, i32 6
  %34 = load ptr, ptr %33, align 8
  store ptr %34, ptr %7, align 8
  br label %21

35:                                               ; preds = %29
  br label %36

36:                                               ; preds = %35, %13
  %37 = load ptr, ptr %7, align 8
  %38 = icmp ne ptr %37, null
  br i1 %38, label %44, label %39

39:                                               ; preds = %36
  br label %40

40:                                               ; preds = %39
  %41 = load ptr, ptr %5, align 8
  %42 = getelementptr inbounds %struct._zval_struct, ptr %41, i32 0, i32 1
  store i32 1, ptr %42, align 8
  br label %43

43:                                               ; preds = %40
  store i32 0, ptr %3, align 4
  br label %49

44:                                               ; preds = %36
  %45 = load ptr, ptr %7, align 8
  %46 = load ptr, ptr %5, align 8
  %47 = load ptr, ptr %4, align 8
  %48 = call zeroext i1 @php_dom_create_object(ptr noundef %45, ptr noundef %46, ptr noundef %47)
  store i32 0, ptr %3, align 4
  br label %49

49:                                               ; preds = %44, %43, %12
  %50 = load i32, ptr %3, align 4
  ret i32 %50
}